target datalayout = "e-m:e-p270:32:32-p271:32:32-p272:64:64-i64:64-i128:128-f80:128-n8:16:32:64-S128"
target triple = "x86_64-pc-linux-gnu"

%"class.absl::uint128" = type { i64, i64 }
%"struct.absl::random_internal::U256" = type { %"class.absl::uint128", %"class.absl::uint128" }
%"class.testing::MatcherDescriberInterface" = type { ptr }
%"class.testing::MatcherInterface" = type { %"class.testing::MatcherDescriberInterface" }
%"class.(anonymous namespace)::Eq256MatcherP2<int, absl::uint128>::gmock_Impl" = type { %"class.testing::MatcherInterface", i32, %"class.absl::uint128" }

; Function Attrs: mustprogress nounwind uwtable
define linkonce_odr dso_local noundef { i64, i64 } @_ZNK4absl7uint128cvoEv(ptr noundef nonnull align 16 dereferenceable(16) %0) #5 comdat align 2 {
  %2 = alloca i128, align 16
  %3 = alloca ptr, align 8
  store ptr %0, ptr %3, align 8, !tbaa !53
  %4 = load ptr, ptr %3, align 8
  %5 = getelementptr inbounds nuw %"class.absl::uint128", ptr %4, i32 0, i32 1
  %6 = load i64, ptr %5, align 8, !tbaa !57
  %7 = zext i64 %6 to i128
  %8 = shl i128 %7, 64
  %9 = getelementptr inbounds nuw %"class.absl::uint128", ptr %4, i32 0, i32 0
  %10 = load i64, ptr %9, align 16, !tbaa !55
  %11 = zext i64 %10 to i128
  %12 = add i128 %8, %11
  store i128 %12, ptr %2, align 16
  %13 = load { i64, i64 }, ptr %2, align 16
  ret { i64, i64 } %13
}

; Function Attrs: mustprogress nounwind uwtable
define linkonce_odr dso_local noundef i64 @_ZNSt14numeric_limitsImE3maxEv() #5 comdat align 2 {
  ret i64 -1
}

; Function Attrs: mustprogress uwtable
define linkonce_odr dso_local noundef zeroext i1 @_ZN4absleqENS_7uint128ES0_(i64 %0, i64 %1, i64 %2, i64 %3) #6 comdat {
  %5 = alloca %"class.absl::uint128", align 16
  %6 = alloca %"class.absl::uint128", align 16
  %7 = alloca i128, align 16
  %8 = alloca i128, align 16
  %9 = getelementptr inbounds nuw { i64, i64 }, ptr %5, i32 0, i32 0
  store i64 %0, ptr %9, align 16
  %10 = getelementptr inbounds nuw { i64, i64 }, ptr %5, i32 0, i32 1
  store i64 %1, ptr %10, align 8
  %11 = getelementptr inbounds nuw { i64, i64 }, ptr %6, i32 0, i32 0
  store i64 %2, ptr %11, align 16
  %12 = getelementptr inbounds nuw { i64, i64 }, ptr %6, i32 0, i32 1
  store i64 %3, ptr %12, align 8
  %13 = call noundef { i64, i64 } @_ZNK4absl7uint128cvoEv(ptr noundef nonnull align 16 dereferenceable(16) %5)
  %14 = getelementptr inbounds nuw { i64, i64 }, ptr %7, i32 0, i32 0
  %15 = extractvalue { i64, i64 } %13, 0
  store i64 %15, ptr %14, align 16
  %16 = getelementptr inbounds nuw { i64, i64 }, ptr %7, i32 0, i32 1
  %17 = extractvalue { i64, i64 } %13, 1
  store i64 %17, ptr %16, align 8
  %18 = load i128, ptr %7, align 16, !tbaa !73
  %19 = call noundef { i64, i64 } @_ZNK4absl7uint128cvoEv(ptr noundef nonnull align 16 dereferenceable(16) %6)
  %20 = getelementptr inbounds nuw { i64, i64 }, ptr %8, i32 0, i32 0
  %21 = extractvalue { i64, i64 } %19, 0
  store i64 %21, ptr %20, align 16
  %22 = getelementptr inbounds nuw { i64, i64 }, ptr %8, i32 0, i32 1
  %23 = extractvalue { i64, i64 } %19, 1
  store i64 %23, ptr %22, align 8
  %24 = load i128, ptr %8, align 16, !tbaa !73
  %25 = icmp eq i128 %18, %24
  ret i1 %25
}

; Function Attrs: mustprogress nounwind uwtable
define linkonce_odr dso_local void @_ZN4absl7uint128C2Ei(ptr noundef nonnull align 16 dereferenceable(16) %0, i32 noundef %1) unnamed_addr #5 comdat align 2 {
  %3 = alloca ptr, align 8
  %4 = alloca i32, align 4
  store ptr %0, ptr %3, align 8, !tbaa !53
  store i32 %1, ptr %4, align 4, !tbaa !17
  %5 = load ptr, ptr %3, align 8
  %6 = getelementptr inbounds nuw %"class.absl::uint128", ptr %5, i32 0, i32 0
  %7 = load i32, ptr %4, align 4, !tbaa !17
  %8 = sext i32 %7 to i64
  store i64 %8, ptr %6, align 16, !tbaa !55
  %9 = getelementptr inbounds nuw %"class.absl::uint128", ptr %5, i32 0, i32 1
  %10 = load i32, ptr %4, align 4, !tbaa !17
  %11 = icmp slt i32 %10, 0
  %12 = call noundef i64 @_ZNSt14numeric_limitsImE3maxEv() #3
  %13 = select i1 %11, i64 %12, i64 0
  store i64 %13, ptr %9, align 8, !tbaa !57
  ret void
}

; Function Attrs: mustprogress uwtable
define internal noundef zeroext i1 @_ZNK12_GLOBAL__N_114Eq256MatcherP2IiN4absl7uint128EE10gmock_ImplIRKNS1_15random_internal4U256EE15MatchAndExplainES8_PN7testing19MatchResultListenerE(ptr noundef nonnull align 16 dereferenceable(32) %0, ptr noundef nonnull align 16 dereferenceable(32) %1, ptr noundef %2) unnamed_addr #6 align 2 {
  %4 = alloca ptr, align 8
  %5 = alloca ptr, align 8
  %6 = alloca ptr, align 8
  %7 = alloca %"class.absl::uint128", align 16
  %8 = alloca %"class.absl::uint128", align 16
  %9 = alloca %"class.absl::uint128", align 16
  %10 = alloca %"class.absl::uint128", align 16
  store ptr %0, ptr %4, align 8, !tbaa !371
  store ptr %1, ptr %5, align 8, !tbaa !51
  store ptr %2, ptr %6, align 8, !tbaa !122
  %11 = load ptr, ptr %4, align 8
  %12 = load ptr, ptr %5, align 8, !tbaa !51
  %13 = getelementptr inbounds nuw %"struct.absl::random_internal::U256", ptr %12, i32 0, i32 0
  call void @llvm.memcpy.p0.p0.i64(ptr align 16 %7, ptr align 16 %13, i64 16, i1 false), !tbaa.struct !42
  %14 = getelementptr inbounds nuw %"class.(anonymous namespace)::Eq256MatcherP2<int, absl::uint128>::gmock_Impl", ptr %11, i32 0, i32 1
  %15 = load i32, ptr %14, align 8, !tbaa !373
  call void @_ZN4absl7uint128C2Ei(ptr noundef nonnull align 16 dereferenceable(16) %8, i32 noundef %15)
  %16 = getelementptr inbounds nuw { i64, i64 }, ptr %7, i32 0, i32 0
  %17 = load i64, ptr %16, align 16
  %18 = getelementptr inbounds nuw { i64, i64 }, ptr %7, i32 0, i32 1
  %19 = load i64, ptr %18, align 8
  %20 = getelementptr inbounds nuw { i64, i64 }, ptr %8, i32 0, i32 0
  %21 = load i64, ptr %20, align 16
  %22 = getelementptr inbounds nuw { i64, i64 }, ptr %8, i32 0, i32 1
  %23 = load i64, ptr %22, align 8
  %24 = call noundef zeroext i1 @_ZN4absleqENS_7uint128ES0_(i64 %17, i64 %19, i64 %21, i64 %23)
  br i1 %24, label %25, label %38

25:                                               ; preds = %3
  %26 = load ptr, ptr %5, align 8, !tbaa !51
  %27 = getelementptr inbounds nuw %"struct.absl::random_internal::U256", ptr %26, i32 0, i32 1
  call void @llvm.memcpy.p0.p0.i64(ptr align 16 %9, ptr align 16 %27, i64 16, i1 false), !tbaa.struct !42
  %28 = getelementptr inbounds nuw %"class.(anonymous namespace)::Eq256MatcherP2<int, absl::uint128>::gmock_Impl", ptr %11, i32 0, i32 2
  call void @llvm.memcpy.p0.p0.i64(ptr align 16 %10, ptr align 16 %28, i64 16, i1 false), !tbaa.struct !42
  %29 = getelementptr inbounds nuw { i64, i64 }, ptr %9, i32 0, i32 0
  %30 = load i64, ptr %29, align 16
  %31 = getelementptr inbounds nuw { i64, i64 }, ptr %9, i32 0, i32 1
  %32 = load i64, ptr %31, align 8
  %33 = getelementptr inbounds nuw { i64, i64 }, ptr %10, i32 0, i32 0
  %34 = load i64, ptr %33, align 16
  %35 = getelementptr inbounds nuw { i64, i64 }, ptr %10, i32 0, i32 1
  %36 = load i64, ptr %35, align 8
  %37 = call noundef zeroext i1 @_ZN4absleqENS_7uint128ES0_(i64 %30, i64 %32, i64 %34, i64 %36)
  br label %38

38:                                               ; preds = %25, %3
  %39 = phi i1 [ false, %3 ], [ %37, %25 ]
  ret i1 %39
}